ARM GAS  C:\Users\NARASH~1\AppData\Local\Temp\ccEVLZXH.s 			page 1


   1              		.cpu cortex-m0
   2              		.fpu softvfp
   3              		.eabi_attribute 20, 1
   4              		.eabi_attribute 21, 1
   5              		.eabi_attribute 23, 3
   6              		.eabi_attribute 24, 1
   7              		.eabi_attribute 25, 1
   8              		.eabi_attribute 26, 1
   9              		.eabi_attribute 30, 1
  10              		.eabi_attribute 34, 0
  11              		.eabi_attribute 18, 4
  12              		.code	16
  13              		.file	"main.c"
  14              		.text
  15              	.Ltext0:
  16              		.cfi_sections	.debug_frame
  17              		.section	.text.DHTread,"ax",%progbits
  18              		.align	2
  19              		.global	DHTread
  20              		.code	16
  21              		.thumb_func
  22              		.type	DHTread, %function
  23              	DHTread:
  24              	.LFB34:
  25              		.file 1 "main.c"
   1:main.c        **** /* ========================================
   2:main.c        ****  *
   3:main.c        ****  * Copyright YOUR COMPANY, THE YEAR
   4:main.c        ****  * All Rights Reserved
   5:main.c        ****  * UNPUBLISHED, LICENSED SOFTWARE.
   6:main.c        ****  *
   7:main.c        ****  * CONFIDENTIAL AND PROPRIETARY INFORMATION
   8:main.c        ****  * WHICH IS THE PROPERTY OF your company.
   9:main.c        ****  *
  10:main.c        ****  * ========================================
  11:main.c        **** */
  12:main.c        **** #include "project.h"
  13:main.c        **** #include "stdio.h"
  14:main.c        **** 
  15:main.c        **** static int temperature=99;
  16:main.c        **** static int humidity=99;
  17:main.c        **** static uint8 IState,i;
  18:main.c        **** 
  19:main.c        **** int DHTread() 
  20:main.c        **** {     
  26              		.loc 1 20 0
  27              		.cfi_startproc
  28 0000 F0B5     		push	{r4, r5, r6, r7, lr}
  29              		.cfi_def_cfa_offset 20
  30              		.cfi_offset 4, -20
  31              		.cfi_offset 5, -16
  32              		.cfi_offset 6, -12
  33              		.cfi_offset 7, -8
  34              		.cfi_offset 14, -4
  35 0002 83B0     		sub	sp, sp, #12
  36              		.cfi_def_cfa_offset 32
  21:main.c        ****    IState=CyEnterCriticalSection();  
ARM GAS  C:\Users\NARASH~1\AppData\Local\Temp\ccEVLZXH.s 			page 2


  37              		.loc 1 21 0
  38 0004 FFF7FEFF 		bl	CyEnterCriticalSection
  39              	.LVL0:
  40 0008 3C4B     		ldr	r3, .L19
  41 000a 1870     		strb	r0, [r3]
  42              	.LVL1:
  22:main.c        ****    uint8 bits[5]; 
  23:main.c        **** 	uint8 cnt = 7; 
  24:main.c        **** 	uint8 idx = 0; 
  25:main.c        ****    int   calc=0; 
  26:main.c        ****    int   timeout=0; 
  27:main.c        ****    for (i=0; i< 5; i++)  
  43              		.loc 1 27 0
  44 000c 0022     		mov	r2, #0
  45 000e 5A70     		strb	r2, [r3, #1]
  46 0010 05E0     		b	.L2
  47              	.L3:
  28:main.c        ****        bits[i] = 0; 
  48              		.loc 1 28 0 discriminator 3
  49 0012 0022     		mov	r2, #0
  50 0014 6946     		mov	r1, sp
  51 0016 CA54     		strb	r2, [r1, r3]
  27:main.c        ****        bits[i] = 0; 
  52              		.loc 1 27 0 discriminator 3
  53 0018 0133     		add	r3, r3, #1
  54 001a 384A     		ldr	r2, .L19
  55 001c 5370     		strb	r3, [r2, #1]
  56              	.L2:
  27:main.c        ****        bits[i] = 0; 
  57              		.loc 1 27 0 is_stmt 0 discriminator 1
  58 001e 374B     		ldr	r3, .L19
  59 0020 5B78     		ldrb	r3, [r3, #1]
  60 0022 042B     		cmp	r3, #4
  61 0024 F5D9     		bls	.L3
  29:main.c        ****    DHT_Write(0u); 
  62              		.loc 1 29 0 is_stmt 1
  63 0026 0020     		mov	r0, #0
  64 0028 FFF7FEFF 		bl	DHT_Write
  65              	.LVL2:
  30:main.c        ****    CyDelay(19); 
  66              		.loc 1 30 0
  67 002c 1320     		mov	r0, #19
  68 002e FFF7FEFF 		bl	CyDelay
  69              	.LVL3:
  31:main.c        ****    DHT_Write(1u); 
  70              		.loc 1 31 0
  71 0032 0120     		mov	r0, #1
  72 0034 FFF7FEFF 		bl	DHT_Write
  73              	.LVL4:
  26:main.c        ****    for (i=0; i< 5; i++)  
  74              		.loc 1 26 0
  75 0038 0025     		mov	r5, #0
  32:main.c        ****    while(DHT_Read()==1) 
  76              		.loc 1 32 0
  77 003a 04E0     		b	.L4
  78              	.LVL5:
  79              	.L6:
ARM GAS  C:\Users\NARASH~1\AppData\Local\Temp\ccEVLZXH.s 			page 3


  33:main.c        ****    { 
  34:main.c        ****        timeout++; 
  80              		.loc 1 34 0
  81 003c 0135     		add	r5, r5, #1
  82              	.LVL6:
  35:main.c        ****        if(timeout>500) 
  83              		.loc 1 35 0
  84 003e FA23     		mov	r3, #250
  85 0040 5B00     		lsl	r3, r3, #1
  86 0042 9D42     		cmp	r5, r3
  87 0044 4EDC     		bgt	.L5
  88              	.LVL7:
  89              	.L4:
  32:main.c        ****    while(DHT_Read()==1) 
  90              		.loc 1 32 0
  91 0046 FFF7FEFF 		bl	DHT_Read
  92              	.LVL8:
  93 004a 0128     		cmp	r0, #1
  94 004c F6D0     		beq	.L6
  95 004e 04E0     		b	.L8
  96              	.L9:
  36:main.c        ****            goto r99;  //DHT error function 
  37:main.c        ****    } 
  38:main.c        ****    while(DHT_Read()==0) 
  39:main.c        ****    {         
  40:main.c        ****        timeout++; 
  97              		.loc 1 40 0
  98 0050 0135     		add	r5, r5, #1
  99              	.LVL9:
  41:main.c        ****        if(timeout>500) 
 100              		.loc 1 41 0
 101 0052 FA23     		mov	r3, #250
 102 0054 5B00     		lsl	r3, r3, #1
 103 0056 9D42     		cmp	r5, r3
 104 0058 44DC     		bgt	.L5
 105              	.L8:
  38:main.c        ****    {         
 106              		.loc 1 38 0
 107 005a FFF7FEFF 		bl	DHT_Read
 108              	.LVL10:
 109 005e 0028     		cmp	r0, #0
 110 0060 F6D0     		beq	.L9
 111              	.L10:
  42:main.c        ****            goto r99; //DHT error function 
  43:main.c        ****    } 
  44:main.c        ****    calc=timeout; 
  45:main.c        ****    timeout=0; 
  46:main.c        ****    while(DHT_Read()==1); 
 112              		.loc 1 46 0 discriminator 1
 113 0062 FFF7FEFF 		bl	DHT_Read
 114              	.LVL11:
 115 0066 0128     		cmp	r0, #1
 116 0068 FBD0     		beq	.L10
  47:main.c        ****    for (i=0; i<40; i++) 
 117              		.loc 1 47 0
 118 006a 0022     		mov	r2, #0
 119 006c 234B     		ldr	r3, .L19
ARM GAS  C:\Users\NARASH~1\AppData\Local\Temp\ccEVLZXH.s 			page 4


 120 006e 5A70     		strb	r2, [r3, #1]
  24:main.c        ****    int   calc=0; 
 121              		.loc 1 24 0
 122 0070 0027     		mov	r7, #0
  23:main.c        **** 	uint8 idx = 0; 
 123              		.loc 1 23 0
 124 0072 0726     		mov	r6, #7
 125              		.loc 1 47 0
 126 0074 22E0     		b	.L11
 127              	.LVL12:
 128              	.L12:
  48:main.c        **** 	{ 
  49:main.c        ****        timeout=0; 
  50:main.c        ****        while(DHT_Read()==0); 
 129              		.loc 1 50 0 discriminator 1
 130 0076 FFF7FEFF 		bl	DHT_Read
 131              	.LVL13:
 132 007a 0028     		cmp	r0, #0
 133 007c FBD0     		beq	.L12
 134 007e 0024     		mov	r4, #0
 135 0080 00E0     		b	.L13
 136              	.LVL14:
 137              	.L14:
  51:main.c        ****        while(DHT_Read()==1) 
  52:main.c        ****            timeout++; 
 138              		.loc 1 52 0
 139 0082 0134     		add	r4, r4, #1
 140              	.LVL15:
 141              	.L13:
  51:main.c        ****        while(DHT_Read()==1) 
 142              		.loc 1 51 0
 143 0084 FFF7FEFF 		bl	DHT_Read
 144              	.LVL16:
 145 0088 0128     		cmp	r0, #1
 146 008a FAD0     		beq	.L14
  53:main.c        ****        //Data acquiring point 
  54:main.c        ****        if ((timeout) > (calc/2)) 
 147              		.loc 1 54 0
 148 008c EB0F     		lsr	r3, r5, #31
 149 008e 5B19     		add	r3, r3, r5
 150 0090 5B10     		asr	r3, r3, #1
 151 0092 A342     		cmp	r3, r4
 152 0094 06DA     		bge	.L15
  55:main.c        ****            bits[idx] |= (1 << cnt); 
 153              		.loc 1 55 0
 154 0096 0123     		mov	r3, #1
 155 0098 B340     		lsl	r3, r3, r6
 156 009a 6A46     		mov	r2, sp
 157 009c D25D     		ldrb	r2, [r2, r7]
 158 009e 1343     		orr	r3, r2
 159 00a0 6A46     		mov	r2, sp
 160 00a2 D355     		strb	r3, [r2, r7]
 161              	.L15:
  56:main.c        ****        if (cnt == 0)   // next byte? 
 162              		.loc 1 56 0
 163 00a4 002E     		cmp	r6, #0
 164 00a6 03D1     		bne	.L16
ARM GAS  C:\Users\NARASH~1\AppData\Local\Temp\ccEVLZXH.s 			page 5


 165              	.LVL17:
  57:main.c        ****    	{ 
  58:main.c        ****    		cnt = 7;    // restart at MSB 
  59:main.c        ****    		idx++;      // next byte! 
 166              		.loc 1 59 0
 167 00a8 0137     		add	r7, r7, #1
 168              	.LVL18:
 169 00aa FFB2     		uxtb	r7, r7
 170              	.LVL19:
  58:main.c        ****    		idx++;      // next byte! 
 171              		.loc 1 58 0
 172 00ac 0736     		add	r6, r6, #7
 173 00ae 01E0     		b	.L17
 174              	.LVL20:
 175              	.L16:
  60:main.c        ****    	} 
  61:main.c        ****    	else cnt--; 
 176              		.loc 1 61 0
 177 00b0 013E     		sub	r6, r6, #1
 178              	.LVL21:
 179 00b2 F6B2     		uxtb	r6, r6
 180              	.LVL22:
 181              	.L17:
  47:main.c        **** 	{ 
 182              		.loc 1 47 0 discriminator 2
 183 00b4 114A     		ldr	r2, .L19
 184 00b6 5378     		ldrb	r3, [r2, #1]
 185 00b8 0133     		add	r3, r3, #1
 186 00ba 5370     		strb	r3, [r2, #1]
 187              	.LVL23:
 188              	.L11:
  47:main.c        **** 	{ 
 189              		.loc 1 47 0 is_stmt 0 discriminator 1
 190 00bc 0F4B     		ldr	r3, .L19
 191 00be 5B78     		ldrb	r3, [r3, #1]
 192 00c0 272B     		cmp	r3, #39
 193 00c2 D8D9     		bls	.L12
  62:main.c        ****    } 
  63:main.c        ****    humidity    = bits[0];  
 194              		.loc 1 63 0 is_stmt 1
 195 00c4 6B46     		mov	r3, sp
 196 00c6 1A78     		ldrb	r2, [r3]
 197 00c8 0D4B     		ldr	r3, .L19+4
 198 00ca 1A60     		str	r2, [r3]
  64:main.c        ****    temperature = bits[2];  
 199              		.loc 1 64 0
 200 00cc 6A46     		mov	r2, sp
 201 00ce 9278     		ldrb	r2, [r2, #2]
 202 00d0 5A60     		str	r2, [r3, #4]
  65:main.c        ****    CyExitCriticalSection(IState); 
 203              		.loc 1 65 0
 204 00d2 0A4B     		ldr	r3, .L19
 205 00d4 1878     		ldrb	r0, [r3]
 206 00d6 FFF7FEFF 		bl	CyExitCriticalSection
 207              	.LVL24:
  66:main.c        ****    CyDelay(1); 
 208              		.loc 1 66 0
ARM GAS  C:\Users\NARASH~1\AppData\Local\Temp\ccEVLZXH.s 			page 6


 209 00da 0120     		mov	r0, #1
 210 00dc FFF7FEFF 		bl	CyDelay
 211              	.LVL25:
  67:main.c        ****    return 0; 
 212              		.loc 1 67 0
 213 00e0 0020     		mov	r0, #0
 214 00e2 08E0     		b	.L18
 215              	.LVL26:
 216              	.L5:
  68:main.c        ****    r99:    //Goto label for error in DHT reading 
  69:main.c        ****        humidity    = 99;  
 217              		.loc 1 69 0
 218 00e4 064B     		ldr	r3, .L19+4
 219 00e6 6322     		mov	r2, #99
 220 00e8 1A60     		str	r2, [r3]
  70:main.c        ****        temperature = 99;  
 221              		.loc 1 70 0
 222 00ea 5A60     		str	r2, [r3, #4]
  71:main.c        ****        CyExitCriticalSection(IState); 
 223              		.loc 1 71 0
 224 00ec 034B     		ldr	r3, .L19
 225 00ee 1878     		ldrb	r0, [r3]
 226 00f0 FFF7FEFF 		bl	CyExitCriticalSection
 227              	.LVL27:
  72:main.c        ****        return 99; 
 228              		.loc 1 72 0
 229 00f4 6320     		mov	r0, #99
 230              	.LVL28:
 231              	.L18:
  73:main.c        **** }
 232              		.loc 1 73 0
 233 00f6 03B0     		add	sp, sp, #12
 234              		@ sp needed
 235 00f8 F0BD     		pop	{r4, r5, r6, r7, pc}
 236              	.L20:
 237 00fa C046     		.align	2
 238              	.L19:
 239 00fc 00000000 		.word	.LANCHOR0
 240 0100 00000000 		.word	.LANCHOR1
 241              		.cfi_endproc
 242              	.LFE34:
 243              		.size	DHTread, .-DHTread
 244              		.section	.text.main,"ax",%progbits
 245              		.align	2
 246              		.global	main
 247              		.code	16
 248              		.thumb_func
 249              		.type	main, %function
 250              	main:
 251              	.LFB35:
  74:main.c        **** int main(void)
  75:main.c        **** {
 252              		.loc 1 75 0
 253              		.cfi_startproc
 254 0000 00B5     		push	{lr}
 255              		.cfi_def_cfa_offset 4
 256              		.cfi_offset 14, -4
ARM GAS  C:\Users\NARASH~1\AppData\Local\Temp\ccEVLZXH.s 			page 7


 257 0002 8BB0     		sub	sp, sp, #44
 258              		.cfi_def_cfa_offset 48
  76:main.c        ****     CyGlobalIntEnable; /* Enable global interrupts. */
 259              		.loc 1 76 0
 260              	@ 76 "main.c" 1
 261 0004 62B6     		CPSIE   i
 262              	@ 0 "" 2
  77:main.c        ****     
  78:main.c        ****     char outputstring[40];
  79:main.c        ****     UART_Start();
 263              		.loc 1 79 0
 264              		.code	16
 265 0006 FFF7FEFF 		bl	UART_Start
 266              	.LVL29:
 267              	.L22:
  80:main.c        ****     
  81:main.c        ****     for(;;)
  82:main.c        ****     {
  83:main.c        ****         DHTread();
 268              		.loc 1 83 0 discriminator 1
 269 000a FFF7FEFF 		bl	DHTread
 270              	.LVL30:
  84:main.c        ****         sprintf(outputstring,"Temperature=%i Humidity= %i \r\n",temperature,humidity);
 271              		.loc 1 84 0 discriminator 1
 272 000e 074B     		ldr	r3, .L23
 273 0010 5A68     		ldr	r2, [r3, #4]
 274 0012 1B68     		ldr	r3, [r3]
 275 0014 6846     		mov	r0, sp
 276 0016 0649     		ldr	r1, .L23+4
 277 0018 FFF7FEFF 		bl	sprintf
 278              	.LVL31:
  85:main.c        ****         UART_UartPutString(outputstring);
 279              		.loc 1 85 0 discriminator 1
 280 001c 6846     		mov	r0, sp
 281 001e FFF7FEFF 		bl	UART_UartPutString
 282              	.LVL32:
  86:main.c        ****         CyDelay(5000);  //Delay in milli seconds.        
 283              		.loc 1 86 0 discriminator 1
 284 0022 0448     		ldr	r0, .L23+8
 285 0024 FFF7FEFF 		bl	CyDelay
 286              	.LVL33:
  87:main.c        ****     }
 287              		.loc 1 87 0 discriminator 1
 288 0028 EFE7     		b	.L22
 289              	.L24:
 290 002a C046     		.align	2
 291              	.L23:
 292 002c 00000000 		.word	.LANCHOR1
 293 0030 00000000 		.word	.LC2
 294 0034 88130000 		.word	5000
 295              		.cfi_endproc
 296              	.LFE35:
 297              		.size	main, .-main
 298              		.data
 299              		.align	2
 300              		.set	.LANCHOR1,. + 0
 301              		.type	humidity, %object
ARM GAS  C:\Users\NARASH~1\AppData\Local\Temp\ccEVLZXH.s 			page 8


 302              		.size	humidity, 4
 303              	humidity:
 304 0000 63000000 		.word	99
 305              		.type	temperature, %object
 306              		.size	temperature, 4
 307              	temperature:
 308 0004 63000000 		.word	99
 309              		.section	.rodata.str1.4,"aMS",%progbits,1
 310              		.align	2
 311              	.LC2:
 312 0000 54656D70 		.ascii	"Temperature=%i Humidity= %i \015\012\000"
 312      65726174 
 312      7572653D 
 312      25692048 
 312      756D6964 
 313 001f 00       		.bss
 314              		.set	.LANCHOR0,. + 0
 315              		.type	IState, %object
 316              		.size	IState, 1
 317              	IState:
 318 0000 00       		.space	1
 319              		.type	i, %object
 320              		.size	i, 1
 321              	i:
 322 0001 00       		.space	1
 323              		.text
 324              	.Letext0:
 325              		.file 2 "Generated_Source\\PSoC4/cytypes.h"
 326              		.file 3 "Generated_Source\\PSoC4/DHT.h"
 327              		.file 4 "Generated_Source\\PSoC4/CyLib.h"
 328              		.file 5 "Generated_Source\\PSoC4/UART_SPI_UART.h"
 329              		.file 6 "Generated_Source\\PSoC4/UART.h"
 330              		.file 7 "c:\\program files (x86)\\cypress\\psoc creator\\4.0\\psoc creator\\import\\gnu\\arm\\4.9.